; Function Attrs: mustprogress uwtable
define dso_local void @_ZN4absl15BlockingCounterC2Ei(ptr noundef nonnull writeonly align 8 captures(none) dereferenceable(17) initializes((0, 17)) %0, i32 noundef %1) unnamed_addr #0 align 2 personality ptr @__gxx_personality_v0 {
  store i64 0, ptr %0, align 8, !tbaa !4
  %3 = getelementptr inbounds nuw i8, ptr %0, i64 8
  store i32 %1, ptr %3, align 8, !tbaa !9
  %4 = getelementptr inbounds nuw i8, ptr %0, i64 12
  store i32 0, ptr %4, align 4, !tbaa !12
  %5 = getelementptr inbounds nuw i8, ptr %0, i64 16
  %6 = icmp eq i32 %1, 0
  %7 = zext i1 %6 to i8
  store i8 %7, ptr %5, align 8, !tbaa !18
  %8 = icmp slt i32 %1, 0
  br i1 %8, label %9, label %10, !prof !19

9:                                                ; preds = %2
  tail call void (i32, ptr, i32, ptr, ...) @_ZN4absl16raw_log_internal6RawLogENS_11LogSeverityEPKciS3_z(i32 noundef 3, ptr noundef nonnull getelementptr inbounds nuw (i8, ptr @.str, i64 120), i32 noundef 36, ptr noundef nonnull @.str.1, ptr noundef nonnull @.str.2, ptr noundef nonnull @.str.3)
  unreachable

10:                                               ; preds = %2
  ret void
}